target datalayout = "e-m:e-p270:32:32-p271:32:32-p272:64:64-i64:64-i128:128-f80:128-n8:16:32:64-S128"
target triple = "x86_64-unknown-linux-gnu"

%"class.icu_75::UObject" = type { ptr }
%"class.icu_75::LSTMBreakEngine" = type { %"class.icu_75::DictionaryBreakEngine", ptr, ptr }
%"class.icu_75::DictionaryBreakEngine" = type { %"class.icu_75::LanguageBreakEngine", %"class.icu_75::UnicodeSet" }
%"class.icu_75::LanguageBreakEngine" = type { %"class.icu_75::UObject" }
%"class.icu_75::UnicodeSet" = type <{ %"class.icu_75::UnicodeFilter", ptr, i32, i32, i8, [7 x i8], ptr, ptr, i32, [4 x i8], ptr, i32, [4 x i8], ptr, ptr, [25 x i32], [4 x i8] }>
%"class.icu_75::UnicodeFilter" = type { %"class.icu_75::UnicodeFunctor", %"class.icu_75::UnicodeMatcher" }
%"class.icu_75::UnicodeFunctor" = type { %"class.icu_75::UObject" }
%"class.icu_75::UnicodeMatcher" = type { ptr }

@_ZN6icu_758LSTMDataD1Ev = unnamed_addr alias void (ptr), ptr @_ZN6icu_758LSTMDataD2Ev

; Function Attrs: mustprogress nounwind uwtable
define void @_ZN6icu_7515LSTMBreakEngineD2Ev(ptr noundef nonnull align 8 dereferenceable(224) %this) unnamed_addr #0 align 2 {
entry:
  %this.addr = alloca ptr, align 8
  store ptr %this, ptr %this.addr, align 8
  %this1 = load ptr, ptr %this.addr, align 8
  store ptr getelementptr inbounds ({ [10 x ptr] }, ptr @_ZTVN6icu_7515LSTMBreakEngineE, i32 0, i32 0, i32 2), ptr %this1, align 8
  %fData = getelementptr inbounds %"class.icu_75::LSTMBreakEngine", ptr %this1, i32 0, i32 1
  %0 = load ptr, ptr %fData, align 8
  %isnull = icmp eq ptr %0, null
  br i1 %isnull, label %delete.end, label %delete.notnull

delete.notnull:                                   ; preds = %entry
  call void @_ZN6icu_758LSTMDataD1Ev(ptr noundef nonnull align 8 dereferenceable(248) %0) #12
  call void @_ZN6icu_757UMemorydlEPv(ptr noundef %0) #12
  br label %delete.end

delete.end:                                       ; preds = %delete.notnull, %entry
  %fVectorizer = getelementptr inbounds %"class.icu_75::LSTMBreakEngine", ptr %this1, i32 0, i32 2
  %1 = load ptr, ptr %fVectorizer, align 8
  %isnull2 = icmp eq ptr %1, null
  br i1 %isnull2, label %delete.end4, label %delete.notnull3

delete.notnull3:                                  ; preds = %delete.end
  %vtable = load ptr, ptr %1, align 8
  %vfn = getelementptr inbounds ptr, ptr %vtable, i64 1
  %2 = load ptr, ptr %vfn, align 8
  call void %2(ptr noundef nonnull align 8 dereferenceable(16) %1) #12
  br label %delete.end4

delete.end4:                                      ; preds = %delete.notnull3, %delete.end
  call void @_ZN6icu_7521DictionaryBreakEngineD2Ev(ptr noundef nonnull align 8 dereferenceable(208) %this1) #12
  ret void
}