; Function Attrs: mustprogress nounwind uwtable
define void @_ZN6icu_7515LSTMBreakEngineD2Ev(ptr noundef nonnull align 8 dereferenceable(224) %this) unnamed_addr #0 align 2 {
entry:
  store ptr getelementptr inbounds ({ [10 x ptr] }, ptr @_ZTVN6icu_7515LSTMBreakEngineE, i64 0, i32 0, i64 2), ptr %this, align 8
  %fData = getelementptr inbounds i8, ptr %this, i64 208
  %0 = load ptr, ptr %fData, align 8
  %isnull = icmp eq ptr %0, null
  br i1 %isnull, label %delete.end, label %delete.notnull

delete.notnull:                                   ; preds = %entry
  tail call void @_ZN6icu_758LSTMDataD1Ev(ptr noundef nonnull align 8 dereferenceable(248) %0) #20
  tail call void @_ZN6icu_757UMemorydlEPv(ptr noundef nonnull %0) #20
  br label %delete.end

delete.end:                                       ; preds = %delete.notnull, %entry
  %fVectorizer = getelementptr inbounds i8, ptr %this, i64 216
  %1 = load ptr, ptr %fVectorizer, align 8
  %isnull2 = icmp eq ptr %1, null
  br i1 %isnull2, label %delete.end4, label %delete.notnull3

delete.notnull3:                                  ; preds = %delete.end
  %vtable = load ptr, ptr %1, align 8
  %vfn = getelementptr inbounds i8, ptr %vtable, i64 8
  %2 = load ptr, ptr %vfn, align 8
  tail call void %2(ptr noundef nonnull align 8 dereferenceable(16) %1) #20
  br label %delete.end4

delete.end4:                                      ; preds = %delete.notnull3, %delete.end
  tail call void @_ZN6icu_7521DictionaryBreakEngineD2Ev(ptr noundef nonnull align 8 dereferenceable(208) %this) #20
  ret void
}